target datalayout = "e-m:e-p270:32:32-p271:32:32-p272:64:64-i64:64-i128:128-f80:128-n8:16:32:64-S128"
target triple = "x86_64-pc-linux-gnu"

%struct._packet_info = type { ptr, ptr, i32, i32, %struct.nstime_t, %struct.nstime_t, %struct.nstime_t, i8, ptr, ptr, ptr, ptr, %struct._address, %struct._address, %struct._address, %struct._address, %struct._address, %struct._address, i32, ptr, i8, [3 x i8], %struct.anon, i32, i32, i32, i32, ptr, i8, ptr, ptr, i16, i16, i32, i32, i16, i32, i32, ptr, ptr, ptr, i8, i8, i16, i16, i16, i32, i16, i16, ptr, ptr, ptr, ptr, ptr, i32, i32 }
%struct.nstime_t = type { i64, i32 }
%struct._address = type { i32, i32, ptr, ptr }
%struct.anon = type { i8, [3 x i8] }
%struct._sip_reason_code_info_t = type { i32, i32 }

@hf_sip_reason_protocols = internal global i32 0, align 4
@hf_sip_reason_cause_q850 = internal global i32 0, align 4
@hf_sip_reason_cause_sip = internal global i32 0, align 4
@hf_sip_reason_cause_other = internal global i32 0, align 4
@hf_sip_reason_text = internal global i32 0, align 4
@.str.873 = private unnamed_addr constant [4 x i8] c"SIP\00", align 1
@sip_reason_code_handle = internal global ptr null, align 8
@.str.1081 = private unnamed_addr constant [6 x i8] c"Q.850\00", align 1

; Function Attrs: null_pointer_is_valid sspstrong uwtable
define internal void @dissect_sip_reason_header(ptr noundef %0, ptr noundef %1, ptr noundef %2, i32 noundef %3, i32 noundef %4) #0 {
  %6 = alloca ptr, align 8
  %7 = alloca ptr, align 8
  %8 = alloca ptr, align 8
  %9 = alloca i32, align 4
  %10 = alloca i32, align 4
  %11 = alloca i32, align 4
  %12 = alloca i32, align 4
  %13 = alloca i32, align 4
  %14 = alloca i32, align 4
  %15 = alloca ptr, align 8
  %16 = alloca i32, align 4
  %17 = alloca %struct._sip_reason_code_info_t, align 4
  %18 = alloca i32, align 4
  %19 = alloca ptr, align 8
  store ptr %0, ptr %6, align 8
  store ptr %1, ptr %7, align 8
  store ptr %2, ptr %8, align 8
  store i32 %3, ptr %9, align 4
  store i32 %4, ptr %10, align 4
  call void @llvm.lifetime.start.p0(i64 4, ptr %11) #18
  call void @llvm.lifetime.start.p0(i64 4, ptr %12) #18
  call void @llvm.lifetime.start.p0(i64 4, ptr %13) #18
  call void @llvm.lifetime.start.p0(i64 4, ptr %14) #18
  call void @llvm.lifetime.start.p0(i64 8, ptr %15) #18
  store ptr null, ptr %15, align 8
  call void @llvm.lifetime.start.p0(i64 4, ptr %16) #18
  call void @llvm.lifetime.start.p0(i64 8, ptr %17) #18
  %20 = load ptr, ptr %6, align 8
  %21 = load i32, ptr %9, align 4
  %22 = load i32, ptr %10, align 4
  %23 = load i32, ptr %9, align 4
  %24 = sub i32 %22, %23
  %25 = call i32 @tvb_skip_wsp(ptr noundef %20, i32 noundef %21, i32 noundef %24)
  store i32 %25, ptr %9, align 4
  %26 = load i32, ptr %9, align 4
  %27 = load i32, ptr %10, align 4
  %28 = icmp sge i32 %26, %27
  br i1 %28, label %29, label %30

29:                                               ; preds = %5
  store i32 1, ptr %18, align 4
  br label %172

30:                                               ; preds = %5
  %31 = load i32, ptr %9, align 4
  store i32 %31, ptr %11, align 4
  %32 = load ptr, ptr %6, align 8
  %33 = load i32, ptr %11, align 4
  %34 = load i32, ptr %10, align 4
  %35 = load i32, ptr %11, align 4
  %36 = sub i32 %34, %35
  %37 = call i32 @tvb_find_uint8(ptr noundef %32, i32 noundef %33, i32 noundef %36, i8 noundef zeroext 59)
  store i32 %37, ptr %12, align 4
  %38 = load i32, ptr %12, align 4
  %39 = icmp eq i32 %38, -1
  br i1 %39, label %40, label %41

40:                                               ; preds = %30
  store i32 1, ptr %18, align 4
  br label %172

41:                                               ; preds = %30
  %42 = load i32, ptr %12, align 4
  %43 = load i32, ptr %11, align 4
  %44 = sub i32 %42, %43
  store i32 %44, ptr %13, align 4
  %45 = load ptr, ptr %7, align 8
  %46 = load i32, ptr @hf_sip_reason_protocols, align 4
  %47 = load ptr, ptr %6, align 8
  %48 = load i32, ptr %9, align 4
  %49 = load i32, ptr %13, align 4
  %50 = load ptr, ptr %8, align 8
  %51 = getelementptr inbounds nuw %struct._packet_info, ptr %50, i32 0, i32 51
  %52 = load ptr, ptr %51, align 8
  %53 = call ptr @proto_tree_add_item_ret_string(ptr noundef %45, i32 noundef %46, ptr noundef %47, i32 noundef %48, i32 noundef %49, i32 noundef 2, ptr noundef %52, ptr noundef %15)
  %54 = load ptr, ptr %6, align 8
  %55 = load i32, ptr %12, align 4
  %56 = load i32, ptr %10, align 4
  %57 = load i32, ptr %12, align 4
  %58 = sub i32 %56, %57
  %59 = call i32 @tvb_find_uint8(ptr noundef %54, i32 noundef %55, i32 noundef %58, i8 noundef zeroext 61)
  %60 = add i32 %59, 1
  store i32 %60, ptr %11, align 4
  %61 = load ptr, ptr %6, align 8
  %62 = load i32, ptr %11, align 4
  %63 = load i32, ptr %10, align 4
  %64 = load i32, ptr %11, align 4
  %65 = sub i32 %63, %64
  %66 = call i32 @tvb_find_uint8(ptr noundef %61, i32 noundef %62, i32 noundef %65, i8 noundef zeroext 59)
  store i32 %66, ptr %12, align 4
  %67 = load i32, ptr %12, align 4
  %68 = icmp eq i32 %67, -1
  br i1 %68, label %69, label %73

69:                                               ; preds = %41
  %70 = load i32, ptr %10, align 4
  %71 = load i32, ptr %11, align 4
  %72 = sub i32 %70, %71
  store i32 %72, ptr %13, align 4
  br label %77

73:                                               ; preds = %41
  %74 = load i32, ptr %12, align 4
  %75 = load i32, ptr %11, align 4
  %76 = sub i32 %74, %75
  store i32 %76, ptr %13, align 4
  br label %77

77:                                               ; preds = %73, %69
  %78 = load ptr, ptr %8, align 8
  %79 = getelementptr inbounds nuw %struct._packet_info, ptr %78, i32 0, i32 51
  %80 = load ptr, ptr %79, align 8
  %81 = load ptr, ptr %6, align 8
  %82 = load i32, ptr %11, align 4
  %83 = load i32, ptr %13, align 4
  %84 = call ptr @tvb_get_string_enc(ptr noundef %80, ptr noundef %81, i32 noundef %82, i32 noundef %83, i32 noundef 2)
  %85 = call i64 @strtoul(ptr noundef %84, ptr noundef null, i32 noundef 10) #18
  %86 = trunc i64 %85 to i32
  store i32 %86, ptr %16, align 4
  %87 = load ptr, ptr %15, align 8
  %88 = call i32 @g_ascii_strcasecmp(ptr noundef %87, ptr noundef @.str.1081)
  %89 = icmp eq i32 %88, 0
  br i1 %89, label %90, label %99

90:                                               ; preds = %77
  %91 = load ptr, ptr %7, align 8
  %92 = load i32, ptr @hf_sip_reason_cause_q850, align 4
  %93 = load ptr, ptr %6, align 8
  %94 = load i32, ptr %11, align 4
  %95 = load i32, ptr %13, align 4
  %96 = load i32, ptr %16, align 4
  %97 = call ptr @proto_tree_add_uint(ptr noundef %91, i32 noundef %92, ptr noundef %93, i32 noundef %94, i32 noundef %95, i32 noundef %96)
  %98 = getelementptr inbounds nuw %struct._sip_reason_code_info_t, ptr %17, i32 0, i32 0
  store i32 2, ptr %98, align 4
  br label %122

99:                                               ; preds = %77
  %100 = load ptr, ptr %15, align 8
  %101 = call i32 @g_ascii_strcasecmp(ptr noundef %100, ptr noundef @.str.873)
  %102 = icmp eq i32 %101, 0
  br i1 %102, label %103, label %112

103:                                              ; preds = %99
  %104 = load ptr, ptr %7, align 8
  %105 = load i32, ptr @hf_sip_reason_cause_sip, align 4
  %106 = load ptr, ptr %6, align 8
  %107 = load i32, ptr %11, align 4
  %108 = load i32, ptr %13, align 4
  %109 = load i32, ptr %16, align 4
  %110 = call ptr @proto_tree_add_uint(ptr noundef %104, i32 noundef %105, ptr noundef %106, i32 noundef %107, i32 noundef %108, i32 noundef %109)
  %111 = getelementptr inbounds nuw %struct._sip_reason_code_info_t, ptr %17, i32 0, i32 0
  store i32 1, ptr %111, align 4
  br label %121

112:                                              ; preds = %99
  %113 = load ptr, ptr %7, align 8
  %114 = load i32, ptr @hf_sip_reason_cause_other, align 4
  %115 = load ptr, ptr %6, align 8
  %116 = load i32, ptr %11, align 4
  %117 = load i32, ptr %13, align 4
  %118 = load i32, ptr %16, align 4
  %119 = call ptr @proto_tree_add_uint(ptr noundef %113, i32 noundef %114, ptr noundef %115, i32 noundef %116, i32 noundef %117, i32 noundef %118)
  %120 = getelementptr inbounds nuw %struct._sip_reason_code_info_t, ptr %17, i32 0, i32 0
  store i32 0, ptr %120, align 4
  br label %121

121:                                              ; preds = %112, %103
  br label %122

122:                                              ; preds = %121, %90
  %123 = load i32, ptr %12, align 4
  %124 = icmp eq i32 %123, -1
  br i1 %124, label %125, label %126

125:                                              ; preds = %122
  store i32 1, ptr %18, align 4
  br label %172

126:                                              ; preds = %122
  %127 = load ptr, ptr %6, align 8
  %128 = load i32, ptr %12, align 4
  %129 = load i32, ptr %10, align 4
  %130 = load i32, ptr %12, align 4
  %131 = sub i32 %129, %130
  %132 = call i32 @tvb_find_uint8(ptr noundef %127, i32 noundef %128, i32 noundef %131, i8 noundef zeroext 34)
  %133 = add i32 %132, 1
  store i32 %133, ptr %11, align 4
  %134 = load i32, ptr %11, align 4
  %135 = icmp eq i32 %134, -1
  br i1 %135, label %136, label %137

136:                                              ; preds = %126
  store i32 1, ptr %18, align 4
  br label %172

137:                                              ; preds = %126
  %138 = load ptr, ptr %6, align 8
  %139 = load i32, ptr %11, align 4
  %140 = load i32, ptr %10, align 4
  %141 = load i32, ptr %11, align 4
  %142 = sub i32 %140, %141
  %143 = call i32 @tvb_find_uint8(ptr noundef %138, i32 noundef %139, i32 noundef %142, i8 noundef zeroext 34)
  store i32 %143, ptr %14, align 4
  %144 = load i32, ptr %14, align 4
  %145 = icmp eq i32 %144, -1
  br i1 %145, label %146, label %147

146:                                              ; preds = %137
  store i32 1, ptr %18, align 4
  br label %172

147:                                              ; preds = %137
  %148 = load i32, ptr %14, align 4
  %149 = load i32, ptr %11, align 4
  %150 = sub i32 %148, %149
  store i32 %150, ptr %13, align 4
  %151 = load ptr, ptr %7, align 8
  %152 = load i32, ptr @hf_sip_reason_text, align 4
  %153 = load ptr, ptr %6, align 8
  %154 = load i32, ptr %11, align 4
  %155 = load i32, ptr %13, align 4
  %156 = call ptr @proto_tree_add_item(ptr noundef %151, i32 noundef %152, ptr noundef %153, i32 noundef %154, i32 noundef %155, i32 noundef 2)
  %157 = load ptr, ptr @sip_reason_code_handle, align 8
  %158 = icmp ne ptr %157, null
  br i1 %158, label %159, label %171

159:                                              ; preds = %147
  call void @llvm.lifetime.start.p0(i64 8, ptr %19) #18
  %160 = load i32, ptr %16, align 4
  %161 = getelementptr inbounds nuw %struct._sip_reason_code_info_t, ptr %17, i32 0, i32 1
  store i32 %160, ptr %161, align 4
  %162 = load ptr, ptr %6, align 8
  %163 = load i32, ptr %11, align 4
  %164 = load i32, ptr %13, align 4
  %165 = call ptr @tvb_new_subset_length(ptr noundef %162, i32 noundef %163, i32 noundef %164)
  store ptr %165, ptr %19, align 8
  %166 = load ptr, ptr @sip_reason_code_handle, align 8
  %167 = load ptr, ptr %19, align 8
  %168 = load ptr, ptr %8, align 8
  %169 = load ptr, ptr %7, align 8
  %170 = call i32 @call_dissector_with_data(ptr noundef %166, ptr noundef %167, ptr noundef %168, ptr noundef %169, ptr noundef %17)
  call void @llvm.lifetime.end.p0(i64 8, ptr %19) #18
  br label %171

171:                                              ; preds = %159, %147
  store i32 0, ptr %18, align 4
  br label %172

172:                                              ; preds = %171, %146, %136, %125, %40, %29
  call void @llvm.lifetime.end.p0(i64 8, ptr %17) #18
  call void @llvm.lifetime.end.p0(i64 4, ptr %16) #18
  call void @llvm.lifetime.end.p0(i64 8, ptr %15) #18
  call void @llvm.lifetime.end.p0(i64 4, ptr %14) #18
  call void @llvm.lifetime.end.p0(i64 4, ptr %13) #18
  call void @llvm.lifetime.end.p0(i64 4, ptr %12) #18
  call void @llvm.lifetime.end.p0(i64 4, ptr %11) #18
  %173 = load i32, ptr %18, align 4
  switch i32 %173, label %175 [
    i32 0, label %174
    i32 1, label %174
  ]

174:                                              ; preds = %172, %172
  ret void

175:                                              ; preds = %172
  unreachable
}