; Function Attrs: null_pointer_is_valid sspstrong uwtable
define internal fastcc void @dissect_sip_reason_header(ptr noundef %0, ptr noundef %1, ptr noundef %2, i32 noundef %3, i32 noundef %4) unnamed_addr #0 {
  %6 = alloca ptr, align 8
  %7 = alloca %struct._sip_reason_code_info_t, align 4
  call void @llvm.lifetime.start.p0(i64 8, ptr nonnull %6) #18
  store ptr null, ptr %6, align 8
  call void @llvm.lifetime.start.p0(i64 8, ptr nonnull %7) #18
  %8 = sub i32 %4, %3
  %9 = tail call i32 @tvb_skip_wsp(ptr noundef %0, i32 noundef %3, i32 noundef %8)
  %.not = icmp slt i32 %9, %4
  br i1 %.not, label %10, label %60

10:                                               ; preds = %5
  %11 = sub i32 %4, %9
  %12 = tail call i32 @tvb_find_uint8(ptr noundef %0, i32 noundef %9, i32 noundef %11, i8 noundef zeroext 59)
  %13 = icmp eq i32 %12, -1
  br i1 %13, label %60, label %14

14:                                               ; preds = %10
  %15 = sub i32 %12, %9
  %16 = load i32, ptr @hf_sip_reason_protocols, align 4
  %17 = getelementptr inbounds nuw i8, ptr %2, i64 408
  %18 = load ptr, ptr %17, align 8
  %19 = call ptr @proto_tree_add_item_ret_string(ptr noundef %1, i32 noundef %16, ptr noundef %0, i32 noundef %9, i32 noundef %15, i32 noundef 2, ptr noundef %18, ptr noundef nonnull %6)
  %20 = sub i32 %4, %12
  %21 = call i32 @tvb_find_uint8(ptr noundef %0, i32 noundef %12, i32 noundef %20, i8 noundef zeroext 61)
  %22 = add i32 %21, 1
  %23 = sub i32 %4, %22
  %24 = call i32 @tvb_find_uint8(ptr noundef %0, i32 noundef %22, i32 noundef %23, i8 noundef zeroext 59)
  %25 = icmp eq i32 %24, -1
  %26 = sub i32 %24, %22
  %.0 = select i1 %25, i32 %23, i32 %26
  %27 = load ptr, ptr %17, align 8
  %28 = call ptr @tvb_get_string_enc(ptr noundef %27, ptr noundef %0, i32 noundef %22, i32 noundef %.0, i32 noundef 2)
  %29 = call i64 @strtoul(ptr noundef captures(none) %28, ptr noundef null, i32 noundef 10) #18
  %30 = trunc i64 %29 to i32
  %31 = load ptr, ptr %6, align 8
  %32 = call i32 @g_ascii_strcasecmp(ptr noundef %31, ptr noundef nonnull @.str.1081)
  %33 = icmp eq i32 %32, 0
  br i1 %33, label %38, label %34

34:                                               ; preds = %14
  %35 = load ptr, ptr %6, align 8
  %36 = call i32 @g_ascii_strcasecmp(ptr noundef %35, ptr noundef nonnull @.str.873)
  %37 = icmp eq i32 %36, 0
  %hf_sip_reason_cause_sip.hf_sip_reason_cause_other = select i1 %37, ptr @hf_sip_reason_cause_sip, ptr @hf_sip_reason_cause_other
  %. = zext i1 %37 to i32
  br label %38

38:                                               ; preds = %34, %14
  %hf_sip_reason_cause_sip.sink = phi ptr [ @hf_sip_reason_cause_q850, %14 ], [ %hf_sip_reason_cause_sip.hf_sip_reason_cause_other, %34 ]
  %.sink = phi i32 [ 2, %14 ], [ %., %34 ]
  %39 = load i32, ptr %hf_sip_reason_cause_sip.sink, align 4
  %40 = call ptr @proto_tree_add_uint(ptr noundef %1, i32 noundef %39, ptr noundef %0, i32 noundef %22, i32 noundef %.0, i32 noundef %30)
  store i32 %.sink, ptr %7, align 4
  br i1 %25, label %60, label %41

41:                                               ; preds = %38
  %42 = sub i32 %4, %24
  %43 = call i32 @tvb_find_uint8(ptr noundef %0, i32 noundef %24, i32 noundef %42, i8 noundef zeroext 34)
  %44 = add i32 %43, 1
  %45 = icmp eq i32 %44, -1
  br i1 %45, label %60, label %46

46:                                               ; preds = %41
  %47 = sub i32 %4, %44
  %48 = call i32 @tvb_find_uint8(ptr noundef %0, i32 noundef %44, i32 noundef %47, i8 noundef zeroext 34)
  %49 = icmp eq i32 %48, -1
  br i1 %49, label %60, label %50

50:                                               ; preds = %46
  %51 = sub i32 %48, %44
  %52 = load i32, ptr @hf_sip_reason_text, align 4
  %53 = call ptr @proto_tree_add_item(ptr noundef %1, i32 noundef %52, ptr noundef %0, i32 noundef %44, i32 noundef %51, i32 noundef 2)
  %54 = load ptr, ptr @sip_reason_code_handle, align 8
  %.not80 = icmp eq ptr %54, null
  br i1 %.not80, label %60, label %55

55:                                               ; preds = %50
  %56 = getelementptr inbounds nuw i8, ptr %7, i64 4
  store i32 %30, ptr %56, align 4
  %57 = call ptr @tvb_new_subset_length(ptr noundef %0, i32 noundef %44, i32 noundef %51)
  %58 = load ptr, ptr @sip_reason_code_handle, align 8
  %59 = call i32 @call_dissector_with_data(ptr noundef %58, ptr noundef %57, ptr noundef %2, ptr noundef %1, ptr noundef nonnull %7)
  br label %60

60:                                               ; preds = %50, %55, %46, %41, %38, %10, %5
  call void @llvm.lifetime.end.p0(i64 8, ptr nonnull %7) #18
  call void @llvm.lifetime.end.p0(i64 8, ptr nonnull %6) #18
  ret void
}